target datalayout = "e-m:e-p270:32:32-p271:32:32-p272:64:64-i64:64-i128:128-f80:128-n8:16:32:64-S128"
target triple = "x86_64-pc-linux-gnu"

%struct.redisServer = type { i32, i64, ptr, ptr, ptr, i32, i32, i32, i32, i32, ptr, ptr, ptr, ptr, ptr, i32, i32, i32, i32, i64, i32, i32, i32, i32, ptr, i32, i32, [41 x i8], i32, i64, i32, i32, i32, ptr, ptr, i32, i32, i64, ptr, ptr, ptr, ptr, [2 x i32], i32, i32, i32, i32, i32, i32, [16 x ptr], i32, ptr, ptr, i32, [8 x %struct.connListener], i32, %struct.connListener, ptr, ptr, ptr, ptr, ptr, ptr, ptr, ptr, ptr, ptr, i32, ptr, i32, ptr, [3 x %struct.pause_event], [256 x i8], ptr, i64, i32, i32, [128 x i32], i32, i32, i64, i32, i32, i32, i32, i32, i64, i64, i64, i64, i64, i64, i64, i64, i64, i64, double, i64, i64, i64, i64, i64, i64, i64, i64, i64, i64, i64, i64, i64, i64, i64, i64, i64, i64, i64, i64, i64, double, i64, i64, i64, i64, i64, ptr, i64, i64, i64, %struct.malloc_stats, i64, i64, i64, i64, i64, i64, i64, i64, i64, i64, i64, i64, double, [4 x i64], i64, i64, i64, i64, [128 x i64], [128 x i64], i64, i64, [7 x %struct.anon], i64, i64, i64, i64, i64, i64, [4 x %struct.durationStats], i32, i32, i32, i32, i32, i32, i32, i32, i32, i32, i32, i32, i64, i32, i32, i32, i32, i64, i64, i32, i32, i32, i32, i32, ptr, [3 x %struct.clientBufferLimitsConfig], i32, i32, i32, ptr, i32, i32, i32, i32, i32, i32, ptr, ptr, i32, i32, i64, i64, i64, i64, i64, i32, i32, ptr, i32, i32, i64, i64, i64, i64, i64, i32, i32, i64, i32, i32, i32, i32, i32, i32, i32, i32, ptr, i32, i64, i64, i64, i64, i32, ptr, i32, ptr, i32, i32, i32, i64, i64, i64, i64, i32, i32, i32, i32, i32, i32, ptr, i32, i32, ptr, i32, i32, i32, [2 x i32], i32, %struct.redisOpArray, i32, ptr, i32, ptr, i32, i32, i32, i32, i32, i32, i32, [41 x i8], [41 x i8], i64, i64, i64, i64, i32, i32, ptr, i64, i64, %struct.replDataBuf, i64, i64, i32, i32, i32, i32, i32, i32, i32, i32, i32, i64, ptr, i64, ptr, ptr, ptr, i32, i32, ptr, ptr, i32, i32, i32, i64, i64, i64, i64, ptr, ptr, i32, ptr, i64, i32, i32, i32, i64, i32, i32, i32, i32, ptr, i32, i32, [41 x i8], i64, i32, ptr, i32, i32, i64, i64, i32, i32, i32, i32, i32, i64, [3 x i32], i32, i32, i32, [10 x i32], ptr, ptr, i32, i64, ptr, ptr, i32, i32, i32, i32, i64, i64, i64, i64, i64, i64, i64, i64, i64, i64, i32, i32, i64, i64, i32, i64, i64, i64, i64, i64, ptr, ptr, i32, ptr, i32, i32, i32, i32, i64, i64, ptr, ptr, i32, i32, i32, i32, i32, ptr, ptr, ptr, i32, i32, i32, i32, i32, i32, i32, i64, i32, i32, i64, i32, i32, i32, i32, i32, i32, i32, i64, ptr, ptr, i64, ptr, i32, %struct.aclInfo, i32, i64, i32, i32, i32, %struct.redisTLSContextConfig, ptr, ptr, ptr, ptr, ptr, i64, i32, ptr, i32, i32, i32, i64, i32, ptr }
%struct.connListener = type { [16 x i32], i32, ptr, i32, i32, ptr, ptr }
%struct.pause_event = type { i32, i64 }
%struct.malloc_stats = type { i64, i64, i64, i64, i64, i64, i64, i64, i64, i64, i64 }
%struct.anon = type { i64, i64, [16 x i64], i32 }
%struct.durationStats = type { i64, i64, i64 }
%struct.clientBufferLimitsConfig = type { i64, i64, i64 }
%struct.redisOpArray = type { ptr, i32, i32 }
%struct.replDataBuf = type { ptr, i64, i64, i64, i64 }
%struct.aclInfo = type { i64, i64, i64, i64 }
%struct.redisTLSContextConfig = type { ptr, ptr, ptr, ptr, ptr, ptr, ptr, ptr, ptr, ptr, ptr, ptr, i32, i32, i32, i32 }
%struct.sharedObjectsStruct = type { ptr, ptr, ptr, ptr, ptr, ptr, ptr, ptr, [4 x ptr], [4 x ptr], [4 x ptr], [4 x ptr], ptr, ptr, ptr, ptr, ptr, ptr, ptr, ptr, ptr, ptr, ptr, ptr, ptr, ptr, ptr, ptr, ptr, ptr, ptr, ptr, ptr, ptr, ptr, ptr, ptr, ptr, ptr, ptr, ptr, ptr, ptr, ptr, ptr, ptr, ptr, ptr, ptr, ptr, ptr, ptr, ptr, ptr, ptr, ptr, ptr, ptr, ptr, ptr, ptr, ptr, ptr, ptr, ptr, ptr, ptr, ptr, ptr, ptr, ptr, ptr, ptr, ptr, ptr, ptr, ptr, ptr, ptr, ptr, ptr, ptr, ptr, ptr, ptr, ptr, ptr, ptr, [10 x ptr], [10000 x ptr], [32 x ptr], [32 x ptr], [32 x ptr], [32 x ptr], ptr, ptr }
%struct.dictType = type { ptr, ptr, ptr, ptr, ptr, ptr, ptr, ptr, ptr, ptr, ptr, i8, ptr, ptr, ptr }
%struct.client = type { i64, i64, ptr, i8, i8, i8, i8, i32, ptr, ptr, ptr, ptr, ptr, i64, i64, i32, ptr, i32, i32, ptr, i64, ptr, ptr, ptr, ptr, ptr, i32, i32, i64, ptr, i64, ptr, i64, i64, i64, i32, ptr, i64, i64, i32, i32, i32, i32, i64, i64, ptr, i64, i64, i64, i64, i64, i64, i64, i64, [41 x i8], i32, ptr, i32, i32, i64, %struct.multiState, %struct.blockingState, i64, ptr, ptr, ptr, ptr, ptr, ptr, ptr, ptr, ptr, ptr, ptr, ptr, ptr, ptr, i64, ptr, i64, i32, ptr, ptr, ptr, i64, %struct.listNode, i64, i64, i32, i64, ptr }
%struct.multiState = type { ptr, i32, i32, i32, i64, i32 }
%struct.blockingState = type { i32, i64, i32, ptr, i32, i32, i64, ptr, ptr, i64 }
%struct.listNode = type { ptr, ptr, ptr }
%struct.pubsubtype = type { i32, ptr, ptr, ptr, ptr, ptr, ptr }
%struct.redisObject = type { i32, i32, ptr }

@server = external global %struct.redisServer, align 8
@shared = external global %struct.sharedObjectsStruct, align 8
@clientDictType = external global %struct.dictType, align 8
@.str = private unnamed_addr constant [38 x i8] c"dictAdd(clients, c, NULL) != DICT_ERR\00", align 1
@.str.1 = private unnamed_addr constant [9 x i8] c"pubsub.c\00", align 1
@.str.2 = private unnamed_addr constant [70 x i8] c"dictInsertAtPosition(type.clientPubSubChannels(c), channel, position)\00", align 1

; Function Attrs: nounwind uwtable
define dso_local void @addReplyPubsubSubscribed(ptr noundef %0, ptr noundef %1, ptr noundef byval(%struct.pubsubtype) align 8 %2) #0 {
  %4 = alloca ptr, align 8
  %5 = alloca ptr, align 8
  %6 = alloca i64, align 8
  store ptr %0, ptr %4, align 8, !tbaa !5
  store ptr %1, ptr %5, align 8, !tbaa !33
  call void @llvm.lifetime.start.p0(i64 8, ptr %6) #8
  %7 = load ptr, ptr %4, align 8, !tbaa !5
  %8 = getelementptr inbounds nuw %struct.client, ptr %7, i32 0, i32 1
  %9 = load i64, ptr %8, align 8, !tbaa !34
  store i64 %9, ptr %6, align 8, !tbaa !30
  %10 = load ptr, ptr %4, align 8, !tbaa !5
  %11 = getelementptr inbounds nuw %struct.client, ptr %10, i32 0, i32 1
  %12 = load i64, ptr %11, align 8, !tbaa !34
  %13 = or i64 %12, 70368744177664
  store i64 %13, ptr %11, align 8, !tbaa !34
  %14 = load ptr, ptr %4, align 8, !tbaa !5
  %15 = getelementptr inbounds nuw %struct.client, ptr %14, i32 0, i32 7
  %16 = load i32, ptr %15, align 4, !tbaa !35
  %17 = icmp eq i32 %16, 2
  br i1 %17, label %18, label %21

18:                                               ; preds = %3
  %19 = load ptr, ptr %4, align 8, !tbaa !5
  %20 = load ptr, ptr getelementptr inbounds ([32 x ptr], ptr getelementptr inbounds nuw (%struct.sharedObjectsStruct, ptr @shared, i32 0, i32 90), i64 0, i64 3), align 8, !tbaa !33
  call void @addReply(ptr noundef %19, ptr noundef %20)
  br label %23

21:                                               ; preds = %3
  %22 = load ptr, ptr %4, align 8, !tbaa !5
  call void @addReplyPushLen(ptr noundef %22, i64 noundef 3)
  br label %23

23:                                               ; preds = %21, %18
  %24 = load ptr, ptr %4, align 8, !tbaa !5
  %25 = getelementptr inbounds nuw %struct.pubsubtype, ptr %2, i32 0, i32 4
  %26 = load ptr, ptr %25, align 8, !tbaa !38
  %27 = load ptr, ptr %26, align 8, !tbaa !33
  call void @addReply(ptr noundef %24, ptr noundef %27)
  %28 = load ptr, ptr %4, align 8, !tbaa !5
  %29 = load ptr, ptr %5, align 8, !tbaa !33
  call void @addReplyBulk(ptr noundef %28, ptr noundef %29)
  %30 = load ptr, ptr %4, align 8, !tbaa !5
  %31 = getelementptr inbounds nuw %struct.pubsubtype, ptr %2, i32 0, i32 2
  %32 = load ptr, ptr %31, align 8, !tbaa !41
  %33 = load ptr, ptr %4, align 8, !tbaa !5
  %34 = call i32 %32(ptr noundef %33)
  %35 = sext i32 %34 to i64
  call void @addReplyLongLong(ptr noundef %30, i64 noundef %35)
  %36 = load i64, ptr %6, align 8, !tbaa !30
  %37 = and i64 %36, 70368744177664
  %38 = icmp ne i64 %37, 0
  br i1 %38, label %44, label %39

39:                                               ; preds = %23
  %40 = load ptr, ptr %4, align 8, !tbaa !5
  %41 = getelementptr inbounds nuw %struct.client, ptr %40, i32 0, i32 1
  %42 = load i64, ptr %41, align 8, !tbaa !34
  %43 = and i64 %42, -70368744177665
  store i64 %43, ptr %41, align 8, !tbaa !34
  br label %44

44:                                               ; preds = %39, %23
  call void @llvm.lifetime.end.p0(i64 8, ptr %6) #8
  ret void
}

; Function Attrs: nounwind uwtable
define dso_local i32 @pubsubSubscribeChannel(ptr noundef %0, ptr noundef %1, ptr noundef byval(%struct.pubsubtype) align 8 %2) #0 {
  %4 = alloca ptr, align 8
  %5 = alloca ptr, align 8
  %6 = alloca ptr, align 8
  %7 = alloca ptr, align 8
  %8 = alloca ptr, align 8
  %9 = alloca i32, align 4
  %10 = alloca i32, align 4
  %11 = alloca ptr, align 8
  store ptr %0, ptr %4, align 8, !tbaa !5
  store ptr %1, ptr %5, align 8, !tbaa !33
  call void @llvm.lifetime.start.p0(i64 8, ptr %6) #8
  call void @llvm.lifetime.start.p0(i64 8, ptr %7) #8
  call void @llvm.lifetime.start.p0(i64 8, ptr %8) #8
  store ptr null, ptr %8, align 8, !tbaa !68
  call void @llvm.lifetime.start.p0(i64 4, ptr %9) #8
  store i32 0, ptr %9, align 4, !tbaa !69
  call void @llvm.lifetime.start.p0(i64 4, ptr %10) #8
  store i32 0, ptr %10, align 4, !tbaa !69
  call void @llvm.lifetime.start.p0(i64 8, ptr %11) #8
  %12 = getelementptr inbounds nuw %struct.pubsubtype, ptr %2, i32 0, i32 1
  %13 = load ptr, ptr %12, align 8, !tbaa !70
  %14 = load ptr, ptr %4, align 8, !tbaa !5
  %15 = call ptr %13(ptr noundef %14)
  %16 = load ptr, ptr %5, align 8, !tbaa !33
  %17 = call ptr @dictFindPositionForInsert(ptr noundef %15, ptr noundef %16, ptr noundef null)
  store ptr %17, ptr %11, align 8, !tbaa !71
  %18 = load ptr, ptr %11, align 8, !tbaa !71
  %19 = icmp ne ptr %18, null
  br i1 %19, label %20, label %89

20:                                               ; preds = %3
  store i32 1, ptr %9, align 4, !tbaa !69
  %21 = load i32, ptr getelementptr inbounds nuw (%struct.redisServer, ptr @server, i32 0, i32 380), align 8, !tbaa !72
  %22 = icmp ne i32 %21, 0
  br i1 %22, label %23, label %32

23:                                               ; preds = %20
  %24 = getelementptr inbounds nuw %struct.pubsubtype, ptr %2, i32 0, i32 0
  %25 = load i32, ptr %24, align 8, !tbaa !73
  %26 = icmp ne i32 %25, 0
  br i1 %26, label %27, label %32

27:                                               ; preds = %23
  %28 = load ptr, ptr %5, align 8, !tbaa !33
  %29 = getelementptr inbounds nuw %struct.redisObject, ptr %28, i32 0, i32 2
  %30 = load ptr, ptr %29, align 8, !tbaa !74
  %31 = call i32 @getKeySlot(ptr noundef %30)
  store i32 %31, ptr %10, align 4, !tbaa !69
  br label %32

32:                                               ; preds = %27, %23, %20
  %33 = getelementptr inbounds nuw %struct.pubsubtype, ptr %2, i32 0, i32 3
  %34 = load ptr, ptr %33, align 8, !tbaa !76
  %35 = load ptr, ptr %34, align 8, !tbaa !77
  %36 = load i32, ptr %10, align 4, !tbaa !69
  %37 = load ptr, ptr %5, align 8, !tbaa !33
  %38 = call ptr @kvstoreDictAddRaw(ptr noundef %35, i32 noundef %36, ptr noundef %37, ptr noundef %7)
  store ptr %38, ptr %6, align 8, !tbaa !78
  %39 = load ptr, ptr %7, align 8, !tbaa !78
  %40 = icmp ne ptr %39, null
  br i1 %40, label %41, label %46

41:                                               ; preds = %32
  %42 = load ptr, ptr %7, align 8, !tbaa !78
  %43 = call ptr @dictGetVal(ptr noundef %42)
  store ptr %43, ptr %8, align 8, !tbaa !68
  %44 = load ptr, ptr %7, align 8, !tbaa !78
  %45 = call ptr @dictGetKey(ptr noundef %44)
  store ptr %45, ptr %5, align 8, !tbaa !33
  br label %55

46:                                               ; preds = %32
  %47 = call ptr @dictCreate(ptr noundef @clientDictType)
  store ptr %47, ptr %8, align 8, !tbaa !68
  %48 = getelementptr inbounds nuw %struct.pubsubtype, ptr %2, i32 0, i32 3
  %49 = load ptr, ptr %48, align 8, !tbaa !76
  %50 = load ptr, ptr %49, align 8, !tbaa !77
  %51 = load i32, ptr %10, align 4, !tbaa !69
  %52 = load ptr, ptr %6, align 8, !tbaa !78
  %53 = load ptr, ptr %8, align 8, !tbaa !68
  call void @kvstoreDictSetVal(ptr noundef %50, i32 noundef %51, ptr noundef %52, ptr noundef %53)
  %54 = load ptr, ptr %5, align 8, !tbaa !33
  call void @incrRefCount(ptr noundef %54)
  br label %55

55:                                               ; preds = %46, %41
  %56 = load ptr, ptr %8, align 8, !tbaa !68
  %57 = load ptr, ptr %4, align 8, !tbaa !5
  %58 = call i32 @dictAdd(ptr noundef %56, ptr noundef %57, ptr noundef null)
  %59 = icmp ne i32 %58, 1
  %60 = xor i1 %59, true
  %61 = xor i1 %60, true
  %62 = zext i1 %61 to i32
  %63 = sext i32 %62 to i64
  %64 = call i64 @llvm.expect.i64(i64 %63, i64 1)
  %65 = icmp ne i64 %64, 0
  br i1 %65, label %66, label %67

66:                                               ; preds = %55
  br label %69

67:                                               ; preds = %55
  call void @_serverAssert(ptr noundef @.str, ptr noundef @.str.1, i32 noundef 264)
  call void @abort() #9
  unreachable

68:                                               ; No predecessors!
  br label %69

69:                                               ; preds = %68, %66
  %70 = getelementptr inbounds nuw %struct.pubsubtype, ptr %2, i32 0, i32 1
  %71 = load ptr, ptr %70, align 8, !tbaa !70
  %72 = load ptr, ptr %4, align 8, !tbaa !5
  %73 = call ptr %71(ptr noundef %72)
  %74 = load ptr, ptr %5, align 8, !tbaa !33
  %75 = load ptr, ptr %11, align 8, !tbaa !71
  %76 = call ptr @dictInsertAtPosition(ptr noundef %73, ptr noundef %74, ptr noundef %75)
  %77 = icmp ne ptr %76, null
  %78 = xor i1 %77, true
  %79 = xor i1 %78, true
  %80 = zext i1 %79 to i32
  %81 = sext i32 %80 to i64
  %82 = call i64 @llvm.expect.i64(i64 %81, i64 1)
  %83 = icmp ne i64 %82, 0
  br i1 %83, label %84, label %85

84:                                               ; preds = %69
  br label %87

85:                                               ; preds = %69
  call void @_serverAssert(ptr noundef @.str.2, ptr noundef @.str.1, i32 noundef 265)
  call void @abort() #9
  unreachable

86:                                               ; No predecessors!
  br label %87

87:                                               ; preds = %86, %84
  %88 = load ptr, ptr %5, align 8, !tbaa !33
  call void @incrRefCount(ptr noundef %88)
  br label %89

89:                                               ; preds = %87, %3
  %90 = load ptr, ptr %4, align 8, !tbaa !5
  %91 = load ptr, ptr %5, align 8, !tbaa !33
  call void @addReplyPubsubSubscribed(ptr noundef %90, ptr noundef %91, ptr noundef byval(%struct.pubsubtype) align 8 %2)
  %92 = load i32, ptr %9, align 4, !tbaa !69
  call void @llvm.lifetime.end.p0(i64 8, ptr %11) #8
  call void @llvm.lifetime.end.p0(i64 4, ptr %10) #8
  call void @llvm.lifetime.end.p0(i64 4, ptr %9) #8
  call void @llvm.lifetime.end.p0(i64 8, ptr %8) #8
  call void @llvm.lifetime.end.p0(i64 8, ptr %7) #8
  call void @llvm.lifetime.end.p0(i64 8, ptr %6) #8
  ret i32 %92
}