; Function Attrs: nounwind uwtable
define dso_local range(i32 0, 2) i32 @pubsubSubscribeChannel(ptr noundef %0, ptr noundef %1, ptr noundef readonly byval(%struct.pubsubtype) align 8 captures(none) %2) local_unnamed_addr #2 {
  %4 = alloca ptr, align 8
  call void @llvm.lifetime.start.p0(i64 8, ptr nonnull %4) #9
  %5 = getelementptr inbounds nuw i8, ptr %2, i64 8
  %6 = load ptr, ptr %5, align 8, !tbaa !67
  %7 = tail call ptr %6(ptr noundef %0) #9
  %8 = tail call ptr @dictFindPositionForInsert(ptr noundef %7, ptr noundef %1, ptr noundef null) #9
  %.not = icmp eq ptr %8, null
  br i1 %.not, label %39, label %9

9:                                                ; preds = %3
  %10 = load i32, ptr getelementptr inbounds nuw (i8, ptr @server, i64 7888), align 8, !tbaa !68
  %11 = icmp ne i32 %10, 0
  %12 = load i32, ptr %2, align 8
  %13 = icmp ne i32 %12, 0
  %or.cond = select i1 %11, i1 %13, i1 false
  br i1 %or.cond, label %14, label %18

14:                                               ; preds = %9
  %15 = getelementptr inbounds nuw i8, ptr %1, i64 8
  %16 = load ptr, ptr %15, align 8, !tbaa !69
  %17 = tail call i32 @getKeySlot(ptr noundef %16) #9
  br label %18

18:                                               ; preds = %14, %9
  %.020 = phi i32 [ %17, %14 ], [ 0, %9 ]
  %19 = getelementptr inbounds nuw i8, ptr %2, i64 24
  %20 = load ptr, ptr %19, align 8, !tbaa !71
  %21 = load ptr, ptr %20, align 8, !tbaa !72
  %22 = call ptr @kvstoreDictAddRaw(ptr noundef %21, i32 noundef %.020, ptr noundef %1, ptr noundef nonnull %4) #9
  %23 = load ptr, ptr %4, align 8, !tbaa !73
  %.not25 = icmp eq ptr %23, null
  br i1 %.not25, label %28, label %24

24:                                               ; preds = %18
  %25 = call ptr @dictGetVal(ptr noundef nonnull %23) #9
  %26 = load ptr, ptr %4, align 8, !tbaa !73
  %27 = call ptr @dictGetKey(ptr noundef %26) #9
  br label %31

28:                                               ; preds = %18
  %29 = call ptr @dictCreate(ptr noundef nonnull @clientDictType) #9
  %30 = load ptr, ptr %20, align 8, !tbaa !72
  call void @kvstoreDictSetVal(ptr noundef %30, i32 noundef %.020, ptr noundef %22, ptr noundef %29) #9
  call void @incrRefCount(ptr noundef %1) #9
  br label %31

31:                                               ; preds = %28, %24
  %.022 = phi ptr [ %25, %24 ], [ %29, %28 ]
  %.1 = phi ptr [ %27, %24 ], [ %1, %28 ]
  %32 = call i32 @dictAdd(ptr noundef %.022, ptr noundef %0, ptr noundef null) #9
  %.not26 = icmp eq i32 %32, 1
  br i1 %.not26, label %33, label %34, !prof !74

33:                                               ; preds = %31
  call void @_serverAssert(ptr noundef nonnull @.str, ptr noundef nonnull @.str.1, i32 noundef 264) #9
  call void @abort() #10
  unreachable

34:                                               ; preds = %31
  %35 = call ptr %6(ptr noundef %0) #9
  %36 = call ptr @dictInsertAtPosition(ptr noundef %35, ptr noundef %.1, ptr noundef nonnull %8) #9
  %.not27 = icmp eq ptr %36, null
  br i1 %.not27, label %37, label %38, !prof !74

37:                                               ; preds = %34
  call void @_serverAssert(ptr noundef nonnull @.str.2, ptr noundef nonnull @.str.1, i32 noundef 265) #9
  call void @abort() #10
  unreachable

38:                                               ; preds = %34
  call void @incrRefCount(ptr noundef %.1) #9
  br label %39

39:                                               ; preds = %38, %3
  %.021 = phi i32 [ 1, %38 ], [ 0, %3 ]
  %.0 = phi ptr [ %.1, %38 ], [ %1, %3 ]
  %.sroa.3.0..sroa_idx = getelementptr inbounds nuw i8, ptr %2, i64 16
  %.sroa.3.0.copyload = load ptr, ptr %.sroa.3.0..sroa_idx, align 8
  %.sroa.428.0..sroa_idx = getelementptr inbounds nuw i8, ptr %2, i64 32
  %.sroa.428.0.copyload = load ptr, ptr %.sroa.428.0..sroa_idx, align 8
  %40 = getelementptr inbounds nuw i8, ptr %0, i64 8
  %41 = load i64, ptr %40, align 8, !tbaa !31
  %42 = or i64 %41, 70368744177664
  store i64 %42, ptr %40, align 8, !tbaa !31
  %43 = getelementptr inbounds nuw i8, ptr %0, i64 28
  %44 = load i32, ptr %43, align 4, !tbaa !32
  %45 = icmp eq i32 %44, 2
  br i1 %45, label %46, label %48

46:                                               ; preds = %39
  %47 = load ptr, ptr getelementptr inbounds nuw (i8, ptr @shared, i64 80904), align 8, !tbaa !33
  call void @addReply(ptr noundef nonnull %0, ptr noundef %47) #9
  br label %49

48:                                               ; preds = %39
  call void @addReplyPushLen(ptr noundef nonnull %0, i64 noundef 3) #9
  br label %49

49:                                               ; preds = %48, %46
  %50 = load ptr, ptr %.sroa.428.0.copyload, align 8, !tbaa !33
  call void @addReply(ptr noundef nonnull %0, ptr noundef %50) #9
  call void @addReplyBulk(ptr noundef nonnull %0, ptr noundef %.0) #9
  %51 = call i32 %.sroa.3.0.copyload(ptr noundef nonnull %0) #9
  %52 = sext i32 %51 to i64
  call void @addReplyLongLong(ptr noundef nonnull %0, i64 noundef %52) #9
  %53 = and i64 %41, 70368744177664
  %.not.i = icmp eq i64 %53, 0
  br i1 %.not.i, label %54, label %addReplyPubsubSubscribed.exit

54:                                               ; preds = %49
  %55 = load i64, ptr %40, align 8, !tbaa !31
  %56 = and i64 %55, -70368744177665
  store i64 %56, ptr %40, align 8, !tbaa !31
  br label %addReplyPubsubSubscribed.exit

addReplyPubsubSubscribed.exit:                    ; preds = %49, %54
  call void @llvm.lifetime.end.p0(i64 8, ptr nonnull %4) #9
  ret i32 %.021
}